; Function Attrs: mustprogress nounwind uwtable
define dso_local void @_ZN4llvm9DbgRecord12deleteRecordEv(ptr noundef nonnull align 8 dereferenceable(33) %0) local_unnamed_addr #0 align 2 {
  %2 = getelementptr inbounds nuw i8, ptr %0, i64 32
  %3 = load i8, ptr %2, align 8
  %switch = icmp eq i8 %3, 0
  br i1 %switch, label %4, label %18

4:                                                ; preds = %1
  %5 = getelementptr inbounds nuw i8, ptr %0, i64 88
  %6 = load ptr, ptr %5, align 8
  %.not.i.i.i.i.i = icmp eq ptr %6, null
  br i1 %.not.i.i.i.i.i, label %_ZN4llvm17DbgRecordParamRefINS_12DIExpressionEED2Ev.exit.i, label %7

7:                                                ; preds = %4
  tail call void @_ZN4llvm16MetadataTracking7untrackEPvRNS_8MetadataE(ptr noundef nonnull %5, ptr noundef nonnull align 4 dereferenceable(8) %6) #17
  br label %_ZN4llvm17DbgRecordParamRefINS_12DIExpressionEED2Ev.exit.i

_ZN4llvm17DbgRecordParamRefINS_12DIExpressionEED2Ev.exit.i: ; preds = %7, %4
  %8 = getelementptr inbounds nuw i8, ptr %0, i64 80
  %9 = load ptr, ptr %8, align 8
  %.not.i.i.i.i1.i = icmp eq ptr %9, null
  br i1 %.not.i.i.i.i1.i, label %_ZN4llvm17DbgRecordParamRefINS_12DIExpressionEED2Ev.exit2.i, label %10

10:                                               ; preds = %_ZN4llvm17DbgRecordParamRefINS_12DIExpressionEED2Ev.exit.i
  tail call void @_ZN4llvm16MetadataTracking7untrackEPvRNS_8MetadataE(ptr noundef nonnull %8, ptr noundef nonnull align 4 dereferenceable(8) %9) #17
  br label %_ZN4llvm17DbgRecordParamRefINS_12DIExpressionEED2Ev.exit2.i

_ZN4llvm17DbgRecordParamRefINS_12DIExpressionEED2Ev.exit2.i: ; preds = %10, %_ZN4llvm17DbgRecordParamRefINS_12DIExpressionEED2Ev.exit.i
  %11 = getelementptr inbounds nuw i8, ptr %0, i64 72
  %12 = load ptr, ptr %11, align 8
  %.not.i.i.i.i3.i = icmp eq ptr %12, null
  br i1 %.not.i.i.i.i3.i, label %_ZN4llvm17DbgRecordParamRefINS_15DILocalVariableEED2Ev.exit.i, label %13

13:                                               ; preds = %_ZN4llvm17DbgRecordParamRefINS_12DIExpressionEED2Ev.exit2.i
  tail call void @_ZN4llvm16MetadataTracking7untrackEPvRNS_8MetadataE(ptr noundef nonnull %11, ptr noundef nonnull align 4 dereferenceable(8) %12) #17
  br label %_ZN4llvm17DbgRecordParamRefINS_15DILocalVariableEED2Ev.exit.i

_ZN4llvm17DbgRecordParamRefINS_15DILocalVariableEED2Ev.exit.i: ; preds = %13, %_ZN4llvm17DbgRecordParamRefINS_12DIExpressionEED2Ev.exit2.i
  %14 = getelementptr inbounds i8, ptr %0, i64 40
  tail call void @_ZN4llvm14DebugValueUser18untrackDebugValuesEv(ptr noundef nonnull align 8 dereferenceable(24) %14) #17
  %15 = getelementptr inbounds nuw i8, ptr %0, i64 24
  %16 = load ptr, ptr %15, align 8
  %.not.i.i.i.i.i.i = icmp eq ptr %16, null
  br i1 %.not.i.i.i.i.i.i, label %_ZN4llvm17DbgVariableRecordD2Ev.exit, label %17

17:                                               ; preds = %_ZN4llvm17DbgRecordParamRefINS_15DILocalVariableEED2Ev.exit.i
  tail call void @_ZN4llvm16MetadataTracking7untrackEPvRNS_8MetadataE(ptr noundef nonnull %15, ptr noundef nonnull align 4 dereferenceable(8) %16) #17
  br label %_ZN4llvm17DbgVariableRecordD2Ev.exit

18:                                               ; preds = %1
  %19 = getelementptr inbounds nuw i8, ptr %0, i64 40
  %20 = load ptr, ptr %19, align 8
  %.not.i.i.i.i.i2 = icmp eq ptr %20, null
  br i1 %.not.i.i.i.i.i2, label %_ZN4llvm17DbgRecordParamRefINS_7DILabelEED2Ev.exit.i, label %21

21:                                               ; preds = %18
  tail call void @_ZN4llvm16MetadataTracking7untrackEPvRNS_8MetadataE(ptr noundef nonnull %19, ptr noundef nonnull align 4 dereferenceable(8) %20) #17
  br label %_ZN4llvm17DbgRecordParamRefINS_7DILabelEED2Ev.exit.i

_ZN4llvm17DbgRecordParamRefINS_7DILabelEED2Ev.exit.i: ; preds = %21, %18
  %22 = getelementptr inbounds nuw i8, ptr %0, i64 24
  %23 = load ptr, ptr %22, align 8
  %.not.i.i.i.i.i.i3 = icmp eq ptr %23, null
  br i1 %.not.i.i.i.i.i.i3, label %_ZN4llvm17DbgVariableRecordD2Ev.exit, label %24

24:                                               ; preds = %_ZN4llvm17DbgRecordParamRefINS_7DILabelEED2Ev.exit.i
  tail call void @_ZN4llvm16MetadataTracking7untrackEPvRNS_8MetadataE(ptr noundef nonnull %22, ptr noundef nonnull align 4 dereferenceable(8) %23) #17
  br label %_ZN4llvm17DbgVariableRecordD2Ev.exit

_ZN4llvm17DbgVariableRecordD2Ev.exit:             ; preds = %24, %_ZN4llvm17DbgRecordParamRefINS_7DILabelEED2Ev.exit.i, %17, %_ZN4llvm17DbgRecordParamRefINS_15DILocalVariableEED2Ev.exit.i
  %.sink = phi i64 [ 96, %_ZN4llvm17DbgRecordParamRefINS_15DILocalVariableEED2Ev.exit.i ], [ 96, %17 ], [ 48, %_ZN4llvm17DbgRecordParamRefINS_7DILabelEED2Ev.exit.i ], [ 48, %24 ]
  tail call void @_ZdlPvm(ptr noundef nonnull %0, i64 noundef %.sink) #18
  ret void
}